; Function Attrs: mustprogress uwtable
define hidden void @_ZN4cvc58internal6theory2ff26TheoryFiniteFieldsRewriter15preRewriteFfAddENS0_12NodeTemplateILb0EEE(ptr dead_on_unwind noalias writable sret(%"class.cvc5::internal::NodeTemplate") align 8 %0, ptr noundef nonnull readonly align 8 captures(none) dereferenceable(64) %1, ptr noundef readonly captures(none) %2) local_unnamed_addr #4 align 2 personality ptr @__gxx_personality_v0 {
  %4 = alloca %"class.cvc5::internal::NodeTemplate.78", align 8
  %5 = getelementptr inbounds nuw i8, ptr %1, i64 8
  %6 = load ptr, ptr %5, align 8, !tbaa !3
  %7 = load ptr, ptr %2, align 8, !tbaa !39
  store ptr %7, ptr %4, align 8, !tbaa !39
  call void @_ZN4cvc58internal4expr9algorithm7flattenIJEEENS0_12NodeTemplateILb1EEEPNS0_11NodeManagerENS4_ILb0EEEDpT_(ptr dead_on_unwind writable sret(%"class.cvc5::internal::NodeTemplate") align 8 %0, ptr noundef %6, ptr noundef nonnull %4)
  ret void
}